; Function Attrs: nounwind sspstrong uwtable
define dso_local range(i64 1, -7) i64 @rb_ary_rassoc(i64 noundef %0, i64 noundef %1) #4 {
  %3 = inttoptr i64 %0 to ptr
  %4 = getelementptr inbounds nuw i8, ptr %3, i64 16
  %5 = getelementptr inbounds nuw i8, ptr %3, i64 32
  br label %6

6:                                                ; preds = %rbimpl_RB_TYPE_P_fastpath.exit.thread, %2
  %.011 = phi i64 [ 0, %2 ], [ %40, %rbimpl_RB_TYPE_P_fastpath.exit.thread ]
  %7 = load i64, ptr %3, align 8, !tbaa !7
  %8 = and i64 %7, 8192
  %.not.i = icmp eq i64 %8, 0
  br i1 %.not.i, label %rb_array_len.exit, label %rb_array_len.exit.thread

rb_array_len.exit:                                ; preds = %6
  %9 = load i64, ptr %4, align 8, !tbaa !12
  %10 = icmp slt i64 %.011, %9
  br i1 %10, label %14, label %41

rb_array_len.exit.thread:                         ; preds = %6
  %11 = lshr i64 %7, 15
  %12 = and i64 %11, 127
  %13 = icmp samesign ult i64 %.011, %12
  br i1 %13, label %RARRAY_AREF.exit, label %41

14:                                               ; preds = %rb_array_len.exit
  %15 = load ptr, ptr %5, align 8, !tbaa !12
  br label %RARRAY_AREF.exit

RARRAY_AREF.exit:                                 ; preds = %rb_array_len.exit.thread, %14
  %.0.i.i = phi ptr [ %15, %14 ], [ %4, %rb_array_len.exit.thread ]
  %16 = getelementptr i64, ptr %.0.i.i, i64 %.011
  %17 = load i64, ptr %16, align 8, !tbaa !13
  %18 = tail call i64 @rb_check_convert_type_with_id(i64 noundef %17, i32 noundef 7, ptr noundef nonnull @.str, i64 noundef 3249) #24
  %19 = icmp eq i64 %18, 0
  %20 = and i64 %18, 7
  %21 = icmp ne i64 %20, 0
  %22 = or i1 %19, %21
  br i1 %22, label %rbimpl_RB_TYPE_P_fastpath.exit.thread, label %rbimpl_RB_TYPE_P_fastpath.exit

rbimpl_RB_TYPE_P_fastpath.exit:                   ; preds = %RARRAY_AREF.exit
  %23 = inttoptr i64 %18 to ptr
  %24 = load i64, ptr %23, align 8, !tbaa !7
  %25 = and i64 %24, 31
  %26 = icmp eq i64 %25, 7
  br i1 %26, label %27, label %rbimpl_RB_TYPE_P_fastpath.exit.thread

27:                                               ; preds = %rbimpl_RB_TYPE_P_fastpath.exit
  %28 = and i64 %24, 8192
  %.not.i13 = icmp eq i64 %28, 0
  br i1 %.not.i13, label %rb_array_len.exit15, label %rb_array_len.exit15.thread

rb_array_len.exit15:                              ; preds = %27
  %29 = getelementptr inbounds nuw i8, ptr %23, i64 16
  %30 = load i64, ptr %29, align 8, !tbaa !12
  %31 = icmp sgt i64 %30, 1
  br i1 %31, label %34, label %rbimpl_RB_TYPE_P_fastpath.exit.thread

rb_array_len.exit15.thread:                       ; preds = %27
  %32 = and i64 %24, 4128768
  %.not23 = icmp eq i64 %32, 0
  br i1 %.not23, label %rbimpl_RB_TYPE_P_fastpath.exit.thread, label %.thread22

.thread22:                                        ; preds = %rb_array_len.exit15.thread
  %33 = getelementptr inbounds nuw i8, ptr %23, i64 16
  br label %RARRAY_AREF.exit18

34:                                               ; preds = %rb_array_len.exit15
  %35 = getelementptr inbounds nuw i8, ptr %23, i64 32
  %36 = load ptr, ptr %35, align 8, !tbaa !12
  br label %RARRAY_AREF.exit18

RARRAY_AREF.exit18:                               ; preds = %.thread22, %34
  %.0.i.i17 = phi ptr [ %33, %.thread22 ], [ %36, %34 ]
  %37 = getelementptr i8, ptr %.0.i.i17, i64 8
  %38 = load i64, ptr %37, align 8, !tbaa !13
  %39 = tail call i64 @rb_equal(i64 noundef %38, i64 noundef %1) #24
  %.not = icmp eq i64 %39, 0
  br i1 %.not, label %rbimpl_RB_TYPE_P_fastpath.exit.thread, label %41

rbimpl_RB_TYPE_P_fastpath.exit.thread:            ; preds = %RARRAY_AREF.exit, %rb_array_len.exit15.thread, %rbimpl_RB_TYPE_P_fastpath.exit, %rb_array_len.exit15, %RARRAY_AREF.exit18
  %40 = add nuw nsw i64 %.011, 1
  br label %6, !llvm.loop !61

41:                                               ; preds = %rb_array_len.exit.thread, %rb_array_len.exit, %RARRAY_AREF.exit18
  %.0 = phi i64 [ %18, %RARRAY_AREF.exit18 ], [ 4, %rb_array_len.exit ], [ 4, %rb_array_len.exit.thread ]
  ret i64 %.0
}